; Function Attrs: nofree norecurse nosync nounwind memory(read, inaccessiblemem: none) uwtable
define range(i32 0, 2) i32 @X509_REQ_extension_nid(i32 noundef %0) local_unnamed_addr #4 {
  %2 = load ptr, ptr @ext_nids, align 8, !tbaa !44
  %3 = load i32, ptr %2, align 4, !tbaa !46
  %4 = icmp eq i32 %3, 0
  br i1 %4, label %._crit_edge, label %.lr.ph

5:                                                ; preds = %.lr.ph
  %indvars.iv.next = add nuw nsw i64 %indvars.iv, 1
  %6 = getelementptr inbounds nuw i32, ptr %2, i64 %indvars.iv.next
  %7 = load i32, ptr %6, align 4, !tbaa !46
  %8 = icmp eq i32 %7, 0
  br i1 %8, label %._crit_edge, label %.lr.ph

.lr.ph:                                           ; preds = %1, %5
  %indvars.iv = phi i64 [ %indvars.iv.next, %5 ], [ 0, %1 ]
  %9 = phi i32 [ %7, %5 ], [ %3, %1 ]
  %10 = icmp eq i32 %0, %9
  br i1 %10, label %._crit_edge, label %5

._crit_edge:                                      ; preds = %5, %.lr.ph, %1
  %.0 = phi i32 [ 0, %1 ], [ 1, %.lr.ph ], [ 0, %5 ]
  ret i32 %.0
}